; Function Attrs: mustprogress nofree norecurse nounwind willreturn memory(readwrite, inaccessiblemem: none) uwtable
define void @_ZN7rocksdb19ThreadStatusUpdater22SetColumnFamilyInfoKeyEPKv(ptr noundef nonnull readnone align 8 captures(none) dereferenceable(216) %0, ptr noundef %1) local_unnamed_addr #8 align 2 {
  %3 = tail call align 8 ptr @llvm.threadlocal.address.p0(ptr align 8 @_ZN7rocksdb19ThreadStatusUpdater19thread_status_data_E)
  %4 = load ptr, ptr %3, align 8, !tbaa !14
  %5 = icmp eq ptr %4, null
  br i1 %5, label %9, label %6

6:                                                ; preds = %2
  %7 = getelementptr inbounds nuw i8, ptr %4, i64 24
  %8 = ptrtoint ptr %1 to i64
  store atomic i64 %8, ptr %7 monotonic, align 8
  br label %9

9:                                                ; preds = %2, %6
  ret void
}